target datalayout = "e-m:e-p270:32:32-p271:32:32-p272:64:64-i64:64-i128:128-f80:128-n8:16:32:64-S128"
target triple = "x86_64-pc-linux-gnu"

%struct._object = type { %union.anon, ptr }
%union.anon = type { i64 }
%struct.anon = type { i32, i32 }

@.str.32 = private unnamed_addr constant [40 x i8] c"../cpython/Modules/_testcapi/watchers.c\00", align 1
@_Py_NoneStruct = external global %struct._object, align 8
@PyExc_ValueError = external global ptr, align 8
@func_watcher_ids = internal global [2 x i32] [i32 -1, i32 -1], align 4
@pyfunc_watchers = internal global [2 x ptr] zeroinitializer, align 16
@.str.57 = private unnamed_addr constant [19 x i8] c"invalid watcher ID\00", align 1
@.str.58 = private unnamed_addr constant [10 x i8] c"idx != -1\00", align 1
@__PRETTY_FUNCTION__.clear_func_watcher = private unnamed_addr constant [53 x i8] c"PyObject *clear_func_watcher(PyObject *, PyObject *)\00", align 1

; Function Attrs: alwaysinline nounwind uwtable
define internal i32 @_Py_IsImmortal(ptr noundef %0) #5 {
  %2 = alloca ptr, align 8
  store ptr %0, ptr %2, align 8, !tbaa !3
  %3 = load ptr, ptr %2, align 8, !tbaa !3
  %4 = getelementptr inbounds nuw %struct._object, ptr %3, i32 0, i32 0
  %5 = getelementptr inbounds nuw %struct.anon, ptr %4, i32 0, i32 0
  %6 = load i32, ptr %5, align 8, !tbaa !52
  %7 = icmp slt i32 %6, 0
  %8 = zext i1 %7 to i32
  ret i32 %8
}

; Function Attrs: alwaysinline nounwind uwtable
define internal void @Py_DECREF(ptr noundef %0) #5 {
  %2 = alloca ptr, align 8
  store ptr %0, ptr %2, align 8, !tbaa !3
  %3 = load ptr, ptr %2, align 8, !tbaa !3
  %4 = call i32 @_Py_IsImmortal(ptr noundef %3)
  %5 = icmp ne i32 %4, 0
  br i1 %5, label %6, label %7

6:                                                ; preds = %1
  br label %16

7:                                                ; preds = %1
  %8 = load ptr, ptr %2, align 8, !tbaa !3
  %9 = getelementptr inbounds nuw %struct._object, ptr %8, i32 0, i32 0
  %10 = getelementptr inbounds nuw %struct.anon, ptr %9, i32 0, i32 0
  %11 = load i32, ptr %10, align 8, !tbaa !52
  %12 = add i32 %11, -1
  store i32 %12, ptr %10, align 8, !tbaa !52
  %13 = icmp eq i32 %12, 0
  br i1 %13, label %14, label %16

14:                                               ; preds = %7
  %15 = load ptr, ptr %2, align 8, !tbaa !3
  call void @_Py_Dealloc(ptr noundef %15)
  br label %16

16:                                               ; preds = %6, %14, %7
  ret void
}

; Function Attrs: nounwind uwtable
define internal ptr @clear_func_watcher(ptr noundef %0, ptr noundef %1) #0 {
  %3 = alloca ptr, align 8
  %4 = alloca ptr, align 8
  %5 = alloca ptr, align 8
  %6 = alloca i64, align 8
  %7 = alloca i32, align 4
  %8 = alloca i32, align 4
  %9 = alloca i32, align 4
  %10 = alloca i32, align 4
  %11 = alloca ptr, align 8
  %12 = alloca ptr, align 8
  store ptr %0, ptr %4, align 8, !tbaa !3
  store ptr %1, ptr %5, align 8, !tbaa !3
  call void @llvm.lifetime.start.p0(i64 8, ptr %6) #6
  %13 = load ptr, ptr %5, align 8, !tbaa !3
  %14 = call i64 @PyLong_AsLong(ptr noundef %13)
  store i64 %14, ptr %6, align 8, !tbaa !12
  %15 = load i64, ptr %6, align 8, !tbaa !12
  %16 = icmp slt i64 %15, -2147483648
  br i1 %16, label %20, label %17

17:                                               ; preds = %2
  %18 = load i64, ptr %6, align 8, !tbaa !12
  %19 = icmp sgt i64 %18, 2147483647
  br i1 %19, label %20, label %22

20:                                               ; preds = %17, %2
  %21 = load ptr, ptr @PyExc_ValueError, align 8, !tbaa !3
  call void @PyErr_SetString(ptr noundef %21, ptr noundef @.str.57)
  store ptr null, ptr %3, align 8
  store i32 1, ptr %7, align 4
  br label %73

22:                                               ; preds = %17
  call void @llvm.lifetime.start.p0(i64 4, ptr %8) #6
  %23 = load i64, ptr %6, align 8, !tbaa !12
  %24 = trunc i64 %23 to i32
  store i32 %24, ptr %8, align 4, !tbaa !10
  %25 = load i32, ptr %8, align 4, !tbaa !10
  %26 = call i32 @PyFunction_ClearWatcher(i32 noundef %25)
  %27 = icmp slt i32 %26, 0
  br i1 %27, label %28, label %29

28:                                               ; preds = %22
  store ptr null, ptr %3, align 8
  store i32 1, ptr %7, align 4
  br label %72

29:                                               ; preds = %22
  call void @llvm.lifetime.start.p0(i64 4, ptr %9) #6
  store i32 -1, ptr %9, align 4, !tbaa !10
  call void @llvm.lifetime.start.p0(i64 4, ptr %10) #6
  store i32 0, ptr %10, align 4, !tbaa !10
  br label %30

30:                                               ; preds = %44, %29
  %31 = load i32, ptr %10, align 4, !tbaa !10
  %32 = icmp slt i32 %31, 2
  br i1 %32, label %34, label %33

33:                                               ; preds = %30
  store i32 2, ptr %7, align 4
  br label %47

34:                                               ; preds = %30
  %35 = load i32, ptr %10, align 4, !tbaa !10
  %36 = sext i32 %35 to i64
  %37 = getelementptr [2 x i32], ptr @func_watcher_ids, i64 0, i64 %36
  %38 = load i32, ptr %37, align 4, !tbaa !10
  %39 = load i32, ptr %8, align 4, !tbaa !10
  %40 = icmp eq i32 %38, %39
  br i1 %40, label %41, label %43

41:                                               ; preds = %34
  %42 = load i32, ptr %10, align 4, !tbaa !10
  store i32 %42, ptr %9, align 4, !tbaa !10
  store i32 2, ptr %7, align 4
  br label %47

43:                                               ; preds = %34
  br label %44

44:                                               ; preds = %43
  %45 = load i32, ptr %10, align 4, !tbaa !10
  %46 = add i32 %45, 1
  store i32 %46, ptr %10, align 4, !tbaa !10
  br label %30, !llvm.loop !22

47:                                               ; preds = %41, %33
  call void @llvm.lifetime.end.p0(i64 4, ptr %10) #6
  br label %48

48:                                               ; preds = %47
  %49 = load i32, ptr %9, align 4, !tbaa !10
  %50 = icmp ne i32 %49, -1
  br i1 %50, label %51, label %52

51:                                               ; preds = %48
  br label %54

52:                                               ; preds = %48
  call void @__assert_fail(ptr noundef @.str.58, ptr noundef @.str.32, i32 noundef 584, ptr noundef @__PRETTY_FUNCTION__.clear_func_watcher) #7
  unreachable

53:                                               ; No predecessors!
  br label %54

54:                                               ; preds = %53, %51
  br label %55

55:                                               ; preds = %54
  call void @llvm.lifetime.start.p0(i64 8, ptr %11) #6
  %56 = load i32, ptr %9, align 4, !tbaa !10
  %57 = sext i32 %56 to i64
  %58 = getelementptr [2 x ptr], ptr @pyfunc_watchers, i64 0, i64 %57
  store ptr %58, ptr %11, align 8, !tbaa !14
  call void @llvm.lifetime.start.p0(i64 8, ptr %12) #6
  %59 = load ptr, ptr %11, align 8, !tbaa !14
  %60 = load ptr, ptr %59, align 8, !tbaa !3
  store ptr %60, ptr %12, align 8, !tbaa !3
  %61 = load ptr, ptr %12, align 8, !tbaa !3
  %62 = icmp ne ptr %61, null
  br i1 %62, label %63, label %66

63:                                               ; preds = %55
  %64 = load ptr, ptr %11, align 8, !tbaa !14
  store ptr null, ptr %64, align 8, !tbaa !3
  %65 = load ptr, ptr %12, align 8, !tbaa !3
  call void @Py_DECREF(ptr noundef %65)
  br label %66

66:                                               ; preds = %63, %55
  call void @llvm.lifetime.end.p0(i64 8, ptr %12) #6
  call void @llvm.lifetime.end.p0(i64 8, ptr %11) #6
  br label %67

67:                                               ; preds = %66
  br label %68

68:                                               ; preds = %67
  %69 = load i32, ptr %9, align 4, !tbaa !10
  %70 = sext i32 %69 to i64
  %71 = getelementptr [2 x i32], ptr @func_watcher_ids, i64 0, i64 %70
  store i32 -1, ptr %71, align 4, !tbaa !10
  store ptr @_Py_NoneStruct, ptr %3, align 8
  store i32 1, ptr %7, align 4
  call void @llvm.lifetime.end.p0(i64 4, ptr %9) #6
  br label %72

72:                                               ; preds = %68, %28
  call void @llvm.lifetime.end.p0(i64 4, ptr %8) #6
  br label %73

73:                                               ; preds = %72, %20
  call void @llvm.lifetime.end.p0(i64 8, ptr %6) #6
  %74 = load ptr, ptr %3, align 8
  ret ptr %74
}