; Function Attrs: nounwind uwtable
define internal noundef ptr @clear_func_watcher(ptr readnone captures(none) %0, ptr noundef %1) #0 {
  %3 = tail call i64 @PyLong_AsLong(ptr noundef %1) #6
  %4 = add i64 %3, -2147483648
  %or.cond = icmp ult i64 %4, -4294967296
  br i1 %or.cond, label %5, label %7

5:                                                ; preds = %2
  %6 = load ptr, ptr @PyExc_ValueError, align 8, !tbaa !21
  tail call void @PyErr_SetString(ptr noundef %6, ptr noundef nonnull @.str.57) #6
  br label %27

7:                                                ; preds = %2
  %8 = trunc nsw i64 %3 to i32
  %9 = tail call i32 @PyFunction_ClearWatcher(i32 noundef %8) #6
  %10 = icmp slt i32 %9, 0
  br i1 %10, label %27, label %.preheader

.preheader:                                       ; preds = %7, %15
  %11 = phi i1 [ false, %15 ], [ true, %7 ]
  %indvars.iv = phi i64 [ 1, %15 ], [ 0, %7 ]
  %12 = getelementptr [2 x i32], ptr @func_watcher_ids, i64 0, i64 %indvars.iv
  %13 = load i32, ptr %12, align 4, !tbaa !20
  %14 = icmp eq i32 %13, %8
  br i1 %14, label %17, label %15

15:                                               ; preds = %.preheader
  br i1 %11, label %.preheader, label %16, !llvm.loop !29

16:                                               ; preds = %15
  tail call void @__assert_fail(ptr noundef nonnull @.str.58, ptr noundef nonnull @.str.32, i32 noundef 584, ptr noundef nonnull @__PRETTY_FUNCTION__.clear_func_watcher) #7
  unreachable

17:                                               ; preds = %.preheader
  %18 = getelementptr [2 x ptr], ptr @pyfunc_watchers, i64 0, i64 %indvars.iv
  %19 = load ptr, ptr %18, align 8, !tbaa !21
  %.not22 = icmp eq ptr %19, null
  br i1 %.not22, label %Py_DECREF.exit, label %20

20:                                               ; preds = %17
  store ptr null, ptr %18, align 8, !tbaa !21
  %21 = load i32, ptr %19, align 8, !tbaa !22
  %.not.i = icmp sgt i32 %21, -1
  br i1 %.not.i, label %22, label %Py_DECREF.exit

22:                                               ; preds = %20
  %23 = add nsw i32 %21, -1
  store i32 %23, ptr %19, align 8, !tbaa !22
  %24 = icmp eq i32 %23, 0
  br i1 %24, label %25, label %Py_DECREF.exit

25:                                               ; preds = %22
  tail call void @_Py_Dealloc(ptr noundef nonnull %19) #6
  br label %Py_DECREF.exit

Py_DECREF.exit:                                   ; preds = %25, %22, %20, %17
  %26 = getelementptr [2 x i32], ptr @func_watcher_ids, i64 0, i64 %indvars.iv
  store i32 -1, ptr %26, align 4, !tbaa !20
  br label %27

27:                                               ; preds = %Py_DECREF.exit, %7, %5
  %.0 = phi ptr [ null, %5 ], [ @_Py_NoneStruct, %Py_DECREF.exit ], [ null, %7 ]
  ret ptr %.0
}